target datalayout = "e-m:e-p270:32:32-p271:32:32-p272:64:64-i64:64-i128:128-f80:128-n8:16:32:64-S128"
target triple = "x86_64-pc-linux-gnu"

%struct.Vec_Int_t_ = type { i32, i32, ptr }

@.str.6 = private unnamed_addr constant [39 x i8] c"Used records = %d.  All records = %d.\0A\00", align 1

; Function Attrs: inlinehint nounwind uwtable
define internal void @Vec_IntFree(ptr noundef %0) #2 {
  %2 = alloca ptr, align 8
  store ptr %0, ptr %2, align 8, !tbaa !10
  %3 = load ptr, ptr %2, align 8, !tbaa !10
  %4 = getelementptr inbounds nuw %struct.Vec_Int_t_, ptr %3, i32 0, i32 2
  %5 = load ptr, ptr %4, align 8, !tbaa !35
  %6 = icmp ne ptr %5, null
  br i1 %6, label %7, label %13

7:                                                ; preds = %1
  %8 = load ptr, ptr %2, align 8, !tbaa !10
  %9 = getelementptr inbounds nuw %struct.Vec_Int_t_, ptr %8, i32 0, i32 2
  %10 = load ptr, ptr %9, align 8, !tbaa !35
  call void @free(ptr noundef %10) #10
  %11 = load ptr, ptr %2, align 8, !tbaa !10
  %12 = getelementptr inbounds nuw %struct.Vec_Int_t_, ptr %11, i32 0, i32 2
  store ptr null, ptr %12, align 8, !tbaa !35
  br label %14

13:                                               ; preds = %1
  br label %14

14:                                               ; preds = %13, %7
  %15 = load ptr, ptr %2, align 8, !tbaa !10
  %16 = icmp ne ptr %15, null
  br i1 %16, label %17, label %19

17:                                               ; preds = %14
  %18 = load ptr, ptr %2, align 8, !tbaa !10
  call void @free(ptr noundef %18) #10
  store ptr null, ptr %2, align 8, !tbaa !10
  br label %20

19:                                               ; preds = %14
  br label %20

20:                                               ; preds = %19, %17
  ret void
}

; Function Attrs: inlinehint nounwind uwtable
define internal i32 @Vec_IntSize(ptr noundef %0) #2 {
  %2 = alloca ptr, align 8
  store ptr %0, ptr %2, align 8, !tbaa !10
  %3 = load ptr, ptr %2, align 8, !tbaa !10
  %4 = getelementptr inbounds nuw %struct.Vec_Int_t_, ptr %3, i32 0, i32 1
  %5 = load i32, ptr %4, align 4, !tbaa !32
  ret i32 %5
}

; Function Attrs: nounwind uwtable
define void @Abc_NtkPrecomputeCellPairsTest() #0 {
  %1 = alloca i32, align 4
  %2 = alloca ptr, align 8
  %3 = alloca ptr, align 8
  %4 = alloca i32, align 4
  %5 = alloca ptr, align 8
  call void @llvm.lifetime.start.p0(i64 4, ptr %1) #10
  call void @llvm.lifetime.start.p0(i64 8, ptr %2) #10
  %6 = call ptr @Mio_CollectRootsNewDefault2(i32 noundef 6, ptr noundef %1, i32 noundef 0)
  store ptr %6, ptr %2, align 8, !tbaa !3
  call void @llvm.lifetime.start.p0(i64 8, ptr %3) #10
  %7 = load ptr, ptr %2, align 8, !tbaa !3
  %8 = load i32, ptr %1, align 4, !tbaa !8
  %9 = call ptr @Abc_NtkPrecomputeCellPairs(ptr noundef %7, i32 noundef %8)
  store ptr %9, ptr %3, align 8, !tbaa !10
  call void @llvm.lifetime.start.p0(i64 4, ptr %4) #10
  %10 = load ptr, ptr %2, align 8, !tbaa !3
  %11 = load i32, ptr %1, align 4, !tbaa !8
  %12 = load ptr, ptr %3, align 8, !tbaa !10
  %13 = call i32 @Abc_NtkPrecomputePrint(ptr noundef %10, i32 noundef %11, ptr noundef %12)
  store i32 %13, ptr %4, align 4, !tbaa !8
  call void @llvm.lifetime.start.p0(i64 8, ptr %5) #10
  %14 = load ptr, ptr %2, align 8, !tbaa !3
  %15 = load i32, ptr %1, align 4, !tbaa !8
  %16 = call ptr @Abc_NtkPrecomputeFirsts(ptr noundef %14, i32 noundef %15)
  store ptr %16, ptr %5, align 8, !tbaa !10
  %17 = load i32, ptr %4, align 4, !tbaa !8
  %18 = load ptr, ptr %3, align 8, !tbaa !10
  %19 = call i32 @Vec_IntSize(ptr noundef %18)
  %20 = sdiv i32 %19, 3
  %21 = load i32, ptr %4, align 4, !tbaa !8
  %22 = sub nsw i32 %20, %21
  %23 = call i32 (ptr, ...) @printf(ptr noundef @.str.6, i32 noundef %17, i32 noundef %22)
  %24 = load ptr, ptr %5, align 8, !tbaa !10
  call void @Vec_IntFree(ptr noundef %24)
  %25 = load ptr, ptr %3, align 8, !tbaa !10
  call void @Vec_IntFree(ptr noundef %25)
  %26 = load ptr, ptr %2, align 8, !tbaa !3
  %27 = icmp ne ptr %26, null
  br i1 %27, label %28, label %30

28:                                               ; preds = %0
  %29 = load ptr, ptr %2, align 8, !tbaa !3
  call void @free(ptr noundef %29) #10
  store ptr null, ptr %2, align 8, !tbaa !3
  br label %31

30:                                               ; preds = %0
  br label %31

31:                                               ; preds = %30, %28
  call void @llvm.lifetime.end.p0(i64 8, ptr %5) #10
  call void @llvm.lifetime.end.p0(i64 4, ptr %4) #10
  call void @llvm.lifetime.end.p0(i64 8, ptr %3) #10
  call void @llvm.lifetime.end.p0(i64 8, ptr %2) #10
  call void @llvm.lifetime.end.p0(i64 4, ptr %1) #10
  ret void
}