; Function Attrs: nounwind uwtable
define void @Abc_NtkPrecomputeCellPairsTest() local_unnamed_addr #0 {
  %1 = alloca i32, align 4
  call void @llvm.lifetime.start.p0(i64 4, ptr nonnull %1) #13
  %2 = call ptr @Mio_CollectRootsNewDefault2(i32 noundef 6, ptr noundef nonnull %1, i32 noundef 0) #13
  %3 = load i32, ptr %1, align 4, !tbaa !15
  %4 = call ptr @Abc_NtkPrecomputeCellPairs(ptr noundef %2, i32 noundef %3)
  %5 = load i32, ptr %1, align 4, !tbaa !15
  %6 = call i32 @Abc_NtkPrecomputePrint(ptr noundef %2, i32 noundef %5, ptr noundef %4)
  %7 = load i32, ptr %1, align 4, !tbaa !15
  %8 = call ptr @Abc_NtkPrecomputeFirsts(ptr noundef %2, i32 noundef %7)
  %9 = getelementptr i8, ptr %4, i64 4
  %.val = load i32, ptr %9, align 4, !tbaa !3
  %10 = sdiv i32 %.val, 3
  %11 = sub nsw i32 %10, %6
  %12 = call i32 (ptr, ...) @printf(ptr noundef nonnull dereferenceable(1) @.str.6, i32 noundef %6, i32 noundef %11)
  %13 = getelementptr inbounds nuw i8, ptr %8, i64 8
  %14 = load ptr, ptr %13, align 8, !tbaa !11
  %.not.i = icmp eq ptr %14, null
  br i1 %.not.i, label %Vec_IntFree.exit, label %15

15:                                               ; preds = %0
  call void @free(ptr noundef nonnull %14) #13
  br label %Vec_IntFree.exit

Vec_IntFree.exit:                                 ; preds = %0, %15
  call void @free(ptr noundef nonnull %8) #13
  %16 = getelementptr inbounds nuw i8, ptr %4, i64 8
  %17 = load ptr, ptr %16, align 8, !tbaa !11
  %.not.i10 = icmp eq ptr %17, null
  br i1 %.not.i10, label %Vec_IntFree.exit11, label %18

18:                                               ; preds = %Vec_IntFree.exit
  call void @free(ptr noundef nonnull %17) #13
  br label %Vec_IntFree.exit11

Vec_IntFree.exit11:                               ; preds = %Vec_IntFree.exit, %18
  call void @free(ptr noundef nonnull %4) #13
  %.not = icmp eq ptr %2, null
  br i1 %.not, label %20, label %19

19:                                               ; preds = %Vec_IntFree.exit11
  call void @free(ptr noundef nonnull %2) #13
  br label %20

20:                                               ; preds = %Vec_IntFree.exit11, %19
  call void @llvm.lifetime.end.p0(i64 4, ptr nonnull %1) #13
  ret void
}